target datalayout = "e-m:e-p270:32:32-p271:32:32-p272:64:64-i64:64-i128:128-f80:128-n8:16:32:64-S128"
target triple = "x86_64-pc-linux-gnu"

%struct.st_table = type { i8, i8, i8, i32, ptr, i64, ptr, i64, i64, ptr }

@rb_eRuntimeError = external global i64, align 8
@.str.153 = private unnamed_addr constant [31 x i8] c"hash modified during iteration\00", align 1

; Function Attrs: nounwind sspstrong uwtable
define internal void @gc_update_table_refs(ptr noundef %0) #0 {
  %2 = alloca ptr, align 8
  store ptr %0, ptr %2, align 8, !tbaa !283
  %3 = load ptr, ptr %2, align 8, !tbaa !283
  %4 = icmp ne ptr %3, null
  br i1 %4, label %5, label %10

5:                                                ; preds = %1
  %6 = load ptr, ptr %2, align 8, !tbaa !283
  %7 = getelementptr inbounds nuw %struct.st_table, ptr %6, i32 0, i32 5
  %8 = load i64, ptr %7, align 8, !tbaa !240
  %9 = icmp eq i64 %8, 0
  br i1 %9, label %10, label %11

10:                                               ; preds = %5, %1
  br label %17

11:                                               ; preds = %5
  %12 = load ptr, ptr %2, align 8, !tbaa !283
  %13 = call i32 @rb_st_foreach_with_replace(ptr noundef %12, ptr noundef @hash_foreach_replace, ptr noundef @hash_replace_ref, i64 noundef 0)
  %14 = icmp ne i32 %13, 0
  br i1 %14, label %15, label %17

15:                                               ; preds = %11
  %16 = load i64, ptr @rb_eRuntimeError, align 8, !tbaa !18
  call void (i64, ptr, ...) @rb_raise(i64 noundef %16, ptr noundef @.str.153) #46
  unreachable

17:                                               ; preds = %10, %11
  ret void
}

; Function Attrs: nounwind sspstrong uwtable
define dso_local void @rb_gc_update_tbl_refs(ptr noundef %0) #0 {
  %2 = alloca ptr, align 8
  store ptr %0, ptr %2, align 8, !tbaa !283
  %3 = load ptr, ptr %2, align 8, !tbaa !283
  call void @gc_update_table_refs(ptr noundef %3)
  ret void
}