; Function Attrs: nounwind sspstrong uwtable
define dso_local void @rb_gc_update_tbl_refs(ptr noundef %0) local_unnamed_addr #0 {
  %.not.i = icmp eq ptr %0, null
  br i1 %.not.i, label %gc_update_table_refs.exit, label %2

2:                                                ; preds = %1
  %3 = getelementptr inbounds nuw i8, ptr %0, i64 16
  %4 = load i64, ptr %3, align 8, !tbaa !252
  %5 = icmp eq i64 %4, 0
  br i1 %5, label %gc_update_table_refs.exit, label %6

6:                                                ; preds = %2
  %7 = tail call i32 @rb_st_foreach_with_replace(ptr noundef nonnull %0, ptr noundef nonnull @hash_foreach_replace, ptr noundef nonnull @hash_replace_ref, i64 noundef 0) #7
  %.not3.i = icmp eq i32 %7, 0
  br i1 %.not3.i, label %gc_update_table_refs.exit, label %8

8:                                                ; preds = %6
  %9 = load i64, ptr @rb_eRuntimeError, align 8, !tbaa !93
  tail call void (i64, ptr, ...) @rb_raise(i64 noundef %9, ptr noundef nonnull @.str.153) #55
  unreachable

gc_update_table_refs.exit:                        ; preds = %1, %2, %6
  ret void
}